
CNC_GCode.elf:     file format elf32-avr

Sections:
Idx Name          Size      VMA       LMA       File off  Algn
  0 .data         00000008  00800100  000003ac  00000440  2**0
                  CONTENTS, ALLOC, LOAD, DATA
  1 .text         000003ac  00000000  00000000  00000094  2**1
                  CONTENTS, ALLOC, LOAD, READONLY, CODE
  2 .bss          00000021  00800108  00800108  00000448  2**0
                  ALLOC
  3 .stab         000006cc  00000000  00000000  00000448  2**2
                  CONTENTS, READONLY, DEBUGGING
  4 .stabstr      00000097  00000000  00000000  00000b14  2**0
                  CONTENTS, READONLY, DEBUGGING

Disassembly of section .text:

00000000 <__vectors>:
   0:	0c 94 34 00 	jmp	0x68	; 0x68 <__ctors_end>
   4:	0c 94 51 00 	jmp	0xa2	; 0xa2 <__bad_interrupt>
   8:	0c 94 51 00 	jmp	0xa2	; 0xa2 <__bad_interrupt>
   c:	0c 94 51 00 	jmp	0xa2	; 0xa2 <__bad_interrupt>
  10:	0c 94 51 00 	jmp	0xa2	; 0xa2 <__bad_interrupt>
  14:	0c 94 51 00 	jmp	0xa2	; 0xa2 <__bad_interrupt>
  18:	0c 94 51 00 	jmp	0xa2	; 0xa2 <__bad_interrupt>
  1c:	0c 94 51 00 	jmp	0xa2	; 0xa2 <__bad_interrupt>
  20:	0c 94 51 00 	jmp	0xa2	; 0xa2 <__bad_interrupt>
  24:	0c 94 51 00 	jmp	0xa2	; 0xa2 <__bad_interrupt>
  28:	0c 94 51 00 	jmp	0xa2	; 0xa2 <__bad_interrupt>
  2c:	0c 94 51 00 	jmp	0xa2	; 0xa2 <__bad_interrupt>
  30:	0c 94 51 00 	jmp	0xa2	; 0xa2 <__bad_interrupt>
  34:	0c 94 51 00 	jmp	0xa2	; 0xa2 <__bad_interrupt>
  38:	0c 94 51 00 	jmp	0xa2	; 0xa2 <__bad_interrupt>
  3c:	0c 94 51 00 	jmp	0xa2	; 0xa2 <__bad_interrupt>
  40:	0c 94 51 00 	jmp	0xa2	; 0xa2 <__bad_interrupt>
  44:	0c 94 51 00 	jmp	0xa2	; 0xa2 <__bad_interrupt>
  48:	0c 94 68 01 	jmp	0x2d0	; 0x2d0 <__vector_18>
  4c:	0c 94 51 00 	jmp	0xa2	; 0xa2 <__bad_interrupt>
  50:	0c 94 51 00 	jmp	0xa2	; 0xa2 <__bad_interrupt>
  54:	0c 94 51 00 	jmp	0xa2	; 0xa2 <__bad_interrupt>
  58:	0c 94 51 00 	jmp	0xa2	; 0xa2 <__bad_interrupt>
  5c:	0c 94 51 00 	jmp	0xa2	; 0xa2 <__bad_interrupt>
  60:	0c 94 51 00 	jmp	0xa2	; 0xa2 <__bad_interrupt>
  64:	0c 94 51 00 	jmp	0xa2	; 0xa2 <__bad_interrupt>

00000068 <__ctors_end>:
  68:	11 24       	eor	r1, r1
  6a:	1f be       	out	0x3f, r1	; 63
  6c:	cf ef       	ldi	r28, 0xFF	; 255
  6e:	d4 e0       	ldi	r29, 0x04	; 4
  70:	de bf       	out	0x3e, r29	; 62
  72:	cd bf       	out	0x3d, r28	; 61

00000074 <__do_copy_data>:
  74:	11 e0       	ldi	r17, 0x01	; 1
  76:	a0 e0       	ldi	r26, 0x00	; 0
  78:	b1 e0       	ldi	r27, 0x01	; 1
  7a:	ec ea       	ldi	r30, 0xAC	; 172
  7c:	f3 e0       	ldi	r31, 0x03	; 3
  7e:	02 c0       	rjmp	.+4      	; 0x84 <__do_copy_data+0x10>
  80:	05 90       	lpm	r0, Z+
  82:	0d 92       	st	X+, r0
  84:	a8 30       	cpi	r26, 0x08	; 8
  86:	b1 07       	cpc	r27, r17
  88:	d9 f7       	brne	.-10     	; 0x80 <__do_copy_data+0xc>

0000008a <__do_clear_bss>:
  8a:	11 e0       	ldi	r17, 0x01	; 1
  8c:	a8 e0       	ldi	r26, 0x08	; 8
  8e:	b1 e0       	ldi	r27, 0x01	; 1
  90:	01 c0       	rjmp	.+2      	; 0x94 <.do_clear_bss_start>

00000092 <.do_clear_bss_loop>:
  92:	1d 92       	st	X+, r1

00000094 <.do_clear_bss_start>:
  94:	a9 32       	cpi	r26, 0x29	; 41
  96:	b1 07       	cpc	r27, r17
  98:	e1 f7       	brne	.-8      	; 0x92 <.do_clear_bss_loop>
  9a:	0e 94 a2 01 	call	0x344	; 0x344 <main>
  9e:	0c 94 d4 01 	jmp	0x3a8	; 0x3a8 <_exit>

000000a2 <__bad_interrupt>:
  a2:	0c 94 00 00 	jmp	0	; 0x0 <__vectors>

000000a6 <Init>:
  a6:	8f ef       	ldi	r24, 0xFF	; 255
  a8:	84 b9       	out	0x04, r24	; 4
  aa:	87 b9       	out	0x07, r24	; 7
  ac:	1a b8       	out	0x0a, r1	; 10
  ae:	8b b9       	out	0x0b, r24	; 11
  b0:	81 e4       	ldi	r24, 0x41	; 65
  b2:	80 93 08 01 	sts	0x0108, r24
  b6:	10 92 09 01 	sts	0x0109, r1
  ba:	10 92 28 01 	sts	0x0128, r1
  be:	08 95       	ret

000000c0 <USART_Init>:
  c0:	90 93 c5 00 	sts	0x00C5, r25
  c4:	80 93 c4 00 	sts	0x00C4, r24
  c8:	e1 ec       	ldi	r30, 0xC1	; 193
  ca:	f0 e0       	ldi	r31, 0x00	; 0
  cc:	88 e1       	ldi	r24, 0x18	; 24
  ce:	80 83       	st	Z, r24
  d0:	86 e0       	ldi	r24, 0x06	; 6
  d2:	80 93 c2 00 	sts	0x00C2, r24
  d6:	80 81       	ld	r24, Z
  d8:	80 68       	ori	r24, 0x80	; 128
  da:	80 83       	st	Z, r24
  dc:	08 95       	ret

000000de <USART_Transmit>:
  de:	90 91 c0 00 	lds	r25, 0x00C0
  e2:	95 ff       	sbrs	r25, 5
  e4:	fc cf       	rjmp	.-8      	; 0xde <USART_Transmit>
  e6:	80 93 c6 00 	sts	0x00C6, r24
  ea:	08 95       	ret

000000ec <USART_Receive>:
  ec:	80 91 c0 00 	lds	r24, 0x00C0
  f0:	87 ff       	sbrs	r24, 7
  f2:	fc cf       	rjmp	.-8      	; 0xec <USART_Receive>
  f4:	80 91 c6 00 	lds	r24, 0x00C6
  f8:	08 95       	ret

000000fa <StepUp>:
  fa:	e0 e0       	ldi	r30, 0x00	; 0
  fc:	f1 e0       	ldi	r31, 0x01	; 1
  fe:	81 91       	ld	r24, Z+
 100:	85 b9       	out	0x05, r24	; 5
 102:	87 e2       	ldi	r24, 0x27	; 39
 104:	93 e2       	ldi	r25, 0x23	; 35
 106:	01 97       	sbiw	r24, 0x01	; 1
 108:	f1 f7       	brne	.-4      	; 0x106 <StepUp+0xc>
 10a:	00 c0       	rjmp	.+0      	; 0x10c <StepUp+0x12>
 10c:	00 00       	nop
 10e:	91 e0       	ldi	r25, 0x01	; 1
 110:	e8 30       	cpi	r30, 0x08	; 8
 112:	f9 07       	cpc	r31, r25
 114:	a1 f7       	brne	.-24     	; 0xfe <StepUp+0x4>
 116:	08 95       	ret

00000118 <StepDown>:
 118:	e8 e0       	ldi	r30, 0x08	; 8
 11a:	f1 e0       	ldi	r31, 0x01	; 1
 11c:	82 91       	ld	r24, -Z
 11e:	85 b9       	out	0x05, r24	; 5
 120:	87 e2       	ldi	r24, 0x27	; 39
 122:	93 e2       	ldi	r25, 0x23	; 35
 124:	01 97       	sbiw	r24, 0x01	; 1
 126:	f1 f7       	brne	.-4      	; 0x124 <StepDown+0xc>
 128:	00 c0       	rjmp	.+0      	; 0x12a <StepDown+0x12>
 12a:	00 00       	nop
 12c:	91 e0       	ldi	r25, 0x01	; 1
 12e:	e0 30       	cpi	r30, 0x00	; 0
 130:	f9 07       	cpc	r31, r25
 132:	a1 f7       	brne	.-24     	; 0x11c <StepDown+0x4>
 134:	08 95       	ret

00000136 <RevDown>:
 136:	8c e0       	ldi	r24, 0x0C	; 12
 138:	90 e0       	ldi	r25, 0x00	; 0
 13a:	0e c0       	rjmp	.+28     	; 0x158 <RevDown+0x22>
 13c:	22 91       	ld	r18, -Z
 13e:	25 b9       	out	0x05, r18	; 5
 140:	a7 e2       	ldi	r26, 0x27	; 39
 142:	b3 e2       	ldi	r27, 0x23	; 35
 144:	11 97       	sbiw	r26, 0x01	; 1
 146:	f1 f7       	brne	.-4      	; 0x144 <RevDown+0xe>
 148:	00 c0       	rjmp	.+0      	; 0x14a <RevDown+0x14>
 14a:	00 00       	nop
 14c:	b1 e0       	ldi	r27, 0x01	; 1
 14e:	e0 30       	cpi	r30, 0x00	; 0
 150:	fb 07       	cpc	r31, r27
 152:	a1 f7       	brne	.-24     	; 0x13c <RevDown+0x6>
 154:	01 97       	sbiw	r24, 0x01	; 1
 156:	19 f0       	breq	.+6      	; 0x15e <RevDown+0x28>
 158:	e8 e0       	ldi	r30, 0x08	; 8
 15a:	f1 e0       	ldi	r31, 0x01	; 1
 15c:	ef cf       	rjmp	.-34     	; 0x13c <RevDown+0x6>
 15e:	08 95       	ret

00000160 <RevUp>:
 160:	8c e0       	ldi	r24, 0x0C	; 12
 162:	90 e0       	ldi	r25, 0x00	; 0
 164:	0e c0       	rjmp	.+28     	; 0x182 <RevUp+0x22>
 166:	21 91       	ld	r18, Z+
 168:	25 b9       	out	0x05, r18	; 5
 16a:	a7 e2       	ldi	r26, 0x27	; 39
 16c:	b3 e2       	ldi	r27, 0x23	; 35
 16e:	11 97       	sbiw	r26, 0x01	; 1
 170:	f1 f7       	brne	.-4      	; 0x16e <RevUp+0xe>
 172:	00 c0       	rjmp	.+0      	; 0x174 <RevUp+0x14>
 174:	00 00       	nop
 176:	b1 e0       	ldi	r27, 0x01	; 1
 178:	e8 30       	cpi	r30, 0x08	; 8
 17a:	fb 07       	cpc	r31, r27
 17c:	a1 f7       	brne	.-24     	; 0x166 <RevUp+0x6>
 17e:	01 97       	sbiw	r24, 0x01	; 1
 180:	19 f0       	breq	.+6      	; 0x188 <RevUp+0x28>
 182:	e0 e0       	ldi	r30, 0x00	; 0
 184:	f1 e0       	ldi	r31, 0x01	; 1
 186:	ef cf       	rjmp	.-34     	; 0x166 <RevUp+0x6>
 188:	08 95       	ret

0000018a <XStepDown>:
 18a:	40 9a       	sbi	0x08, 0	; 8
 18c:	80 91 09 01 	lds	r24, 0x0109
 190:	88 23       	and	r24, r24
 192:	19 f4       	brne	.+6      	; 0x19a <XStepDown+0x10>
 194:	0e 94 b0 00 	call	0x160	; 0x160 <RevUp>
 198:	02 c0       	rjmp	.+4      	; 0x19e <XStepDown+0x14>
 19a:	0e 94 7d 00 	call	0xfa	; 0xfa <StepUp>
 19e:	40 98       	cbi	0x08, 0	; 8
 1a0:	08 95       	ret

000001a2 <XStepUp>:
 1a2:	80 91 07 01 	lds	r24, 0x0107
 1a6:	85 b9       	out	0x05, r24	; 5
 1a8:	40 9a       	sbi	0x08, 0	; 8
 1aa:	80 91 09 01 	lds	r24, 0x0109
 1ae:	88 23       	and	r24, r24
 1b0:	19 f4       	brne	.+6      	; 0x1b8 <XStepUp+0x16>
 1b2:	0e 94 9b 00 	call	0x136	; 0x136 <RevDown>
 1b6:	02 c0       	rjmp	.+4      	; 0x1bc <XStepUp+0x1a>
 1b8:	0e 94 8c 00 	call	0x118	; 0x118 <StepDown>
 1bc:	40 98       	cbi	0x08, 0	; 8
 1be:	08 95       	ret

000001c0 <YStepUp>:
 1c0:	88 e0       	ldi	r24, 0x08	; 8
 1c2:	85 b9       	out	0x05, r24	; 5
 1c4:	41 9a       	sbi	0x08, 1	; 8
 1c6:	80 91 09 01 	lds	r24, 0x0109
 1ca:	88 23       	and	r24, r24
 1cc:	19 f4       	brne	.+6      	; 0x1d4 <YStepUp+0x14>
 1ce:	0e 94 b0 00 	call	0x160	; 0x160 <RevUp>
 1d2:	02 c0       	rjmp	.+4      	; 0x1d8 <YStepUp+0x18>
 1d4:	0e 94 7d 00 	call	0xfa	; 0xfa <StepUp>
 1d8:	41 98       	cbi	0x08, 1	; 8
 1da:	08 95       	ret

000001dc <YStepDown>:
 1dc:	89 e0       	ldi	r24, 0x09	; 9
 1de:	85 b9       	out	0x05, r24	; 5
 1e0:	41 9a       	sbi	0x08, 1	; 8
 1e2:	80 91 09 01 	lds	r24, 0x0109
 1e6:	88 23       	and	r24, r24
 1e8:	19 f4       	brne	.+6      	; 0x1f0 <YStepDown+0x14>
 1ea:	0e 94 9b 00 	call	0x136	; 0x136 <RevDown>
 1ee:	02 c0       	rjmp	.+4      	; 0x1f4 <YStepDown+0x18>
 1f0:	0e 94 8c 00 	call	0x118	; 0x118 <StepDown>
 1f4:	41 98       	cbi	0x08, 1	; 8
 1f6:	08 95       	ret

000001f8 <ZStepUp>:
 1f8:	88 e0       	ldi	r24, 0x08	; 8
 1fa:	85 b9       	out	0x05, r24	; 5
 1fc:	42 9a       	sbi	0x08, 2	; 8
 1fe:	80 91 09 01 	lds	r24, 0x0109
 202:	88 23       	and	r24, r24
 204:	19 f4       	brne	.+6      	; 0x20c <ZStepUp+0x14>
 206:	0e 94 b0 00 	call	0x160	; 0x160 <RevUp>
 20a:	02 c0       	rjmp	.+4      	; 0x210 <ZStepUp+0x18>
 20c:	0e 94 7d 00 	call	0xfa	; 0xfa <StepUp>
 210:	42 98       	cbi	0x08, 2	; 8
 212:	08 95       	ret

00000214 <ZStepDown>:
 214:	89 e0       	ldi	r24, 0x09	; 9
 216:	85 b9       	out	0x05, r24	; 5
 218:	42 9a       	sbi	0x08, 2	; 8
 21a:	80 91 09 01 	lds	r24, 0x0109
 21e:	88 23       	and	r24, r24
 220:	19 f4       	brne	.+6      	; 0x228 <ZStepDown+0x14>
 222:	0e 94 9b 00 	call	0x136	; 0x136 <RevDown>
 226:	02 c0       	rjmp	.+4      	; 0x22c <ZStepDown+0x18>
 228:	0e 94 8c 00 	call	0x118	; 0x118 <StepDown>
 22c:	42 98       	cbi	0x08, 2	; 8
 22e:	08 95       	ret

00000230 <MillBuffer>:
 230:	1f 93       	push	r17
 232:	cf 93       	push	r28
 234:	df 93       	push	r29
 236:	c0 e0       	ldi	r28, 0x00	; 0
 238:	d0 e0       	ldi	r29, 0x00	; 0
 23a:	11 e0       	ldi	r17, 0x01	; 1
 23c:	80 91 08 01 	lds	r24, 0x0108
 240:	81 35       	cpi	r24, 0x51	; 81
 242:	c1 f1       	breq	.+112    	; 0x2b4 <MillBuffer+0x84>
 244:	fe 01       	movw	r30, r28
 246:	e6 5f       	subi	r30, 0xF6	; 246
 248:	fe 4f       	sbci	r31, 0xFE	; 254
 24a:	80 81       	ld	r24, Z
 24c:	89 35       	cpi	r24, 0x59	; 89
 24e:	19 f1       	breq	.+70     	; 0x296 <MillBuffer+0x66>
 250:	8a 35       	cpi	r24, 0x5A	; 90
 252:	60 f4       	brcc	.+24     	; 0x26c <MillBuffer+0x3c>
 254:	82 35       	cpi	r24, 0x52	; 82
 256:	41 f1       	breq	.+80     	; 0x2a8 <MillBuffer+0x78>
 258:	83 35       	cpi	r24, 0x53	; 83
 25a:	18 f4       	brcc	.+6      	; 0x262 <MillBuffer+0x32>
 25c:	85 34       	cpi	r24, 0x45	; 69
 25e:	61 f5       	brne	.+88     	; 0x2b8 <MillBuffer+0x88>
 260:	29 c0       	rjmp	.+82     	; 0x2b4 <MillBuffer+0x84>
 262:	83 35       	cpi	r24, 0x53	; 83
 264:	21 f1       	breq	.+72     	; 0x2ae <MillBuffer+0x7e>
 266:	88 35       	cpi	r24, 0x58	; 88
 268:	39 f5       	brne	.+78     	; 0x2b8 <MillBuffer+0x88>
 26a:	0f c0       	rjmp	.+30     	; 0x28a <MillBuffer+0x5a>
 26c:	88 37       	cpi	r24, 0x78	; 120
 26e:	51 f0       	breq	.+20     	; 0x284 <MillBuffer+0x54>
 270:	89 37       	cpi	r24, 0x79	; 121
 272:	18 f4       	brcc	.+6      	; 0x27a <MillBuffer+0x4a>
 274:	8a 35       	cpi	r24, 0x5A	; 90
 276:	01 f5       	brne	.+64     	; 0x2b8 <MillBuffer+0x88>
 278:	14 c0       	rjmp	.+40     	; 0x2a2 <MillBuffer+0x72>
 27a:	89 37       	cpi	r24, 0x79	; 121
 27c:	49 f0       	breq	.+18     	; 0x290 <MillBuffer+0x60>
 27e:	8a 37       	cpi	r24, 0x7A	; 122
 280:	d9 f4       	brne	.+54     	; 0x2b8 <MillBuffer+0x88>
 282:	0c c0       	rjmp	.+24     	; 0x29c <MillBuffer+0x6c>
 284:	0e 94 c5 00 	call	0x18a	; 0x18a <XStepDown>
 288:	17 c0       	rjmp	.+46     	; 0x2b8 <MillBuffer+0x88>
 28a:	0e 94 d1 00 	call	0x1a2	; 0x1a2 <XStepUp>
 28e:	14 c0       	rjmp	.+40     	; 0x2b8 <MillBuffer+0x88>
 290:	0e 94 ee 00 	call	0x1dc	; 0x1dc <YStepDown>
 294:	11 c0       	rjmp	.+34     	; 0x2b8 <MillBuffer+0x88>
 296:	0e 94 e0 00 	call	0x1c0	; 0x1c0 <YStepUp>
 29a:	0e c0       	rjmp	.+28     	; 0x2b8 <MillBuffer+0x88>
 29c:	0e 94 0a 01 	call	0x214	; 0x214 <ZStepDown>
 2a0:	0b c0       	rjmp	.+22     	; 0x2b8 <MillBuffer+0x88>
 2a2:	0e 94 fc 00 	call	0x1f8	; 0x1f8 <ZStepUp>
 2a6:	08 c0       	rjmp	.+16     	; 0x2b8 <MillBuffer+0x88>
 2a8:	10 92 09 01 	sts	0x0109, r1
 2ac:	05 c0       	rjmp	.+10     	; 0x2b8 <MillBuffer+0x88>
 2ae:	10 93 09 01 	sts	0x0109, r17
 2b2:	02 c0       	rjmp	.+4      	; 0x2b8 <MillBuffer+0x88>
 2b4:	ce e1       	ldi	r28, 0x1E	; 30
 2b6:	d0 e0       	ldi	r29, 0x00	; 0
 2b8:	21 96       	adiw	r28, 0x01	; 1
 2ba:	ce 31       	cpi	r28, 0x1E	; 30
 2bc:	d1 05       	cpc	r29, r1
 2be:	0c f4       	brge	.+2      	; 0x2c2 <MillBuffer+0x92>
 2c0:	bd cf       	rjmp	.-134    	; 0x23c <MillBuffer+0xc>
 2c2:	84 e4       	ldi	r24, 0x44	; 68
 2c4:	0e 94 6f 00 	call	0xde	; 0xde <USART_Transmit>
 2c8:	df 91       	pop	r29
 2ca:	cf 91       	pop	r28
 2cc:	1f 91       	pop	r17
 2ce:	08 95       	ret

000002d0 <__vector_18>:
 2d0:	1f 92       	push	r1
 2d2:	0f 92       	push	r0
 2d4:	0f b6       	in	r0, 0x3f	; 63
 2d6:	0f 92       	push	r0
 2d8:	11 24       	eor	r1, r1
 2da:	2f 93       	push	r18
 2dc:	3f 93       	push	r19
 2de:	4f 93       	push	r20
 2e0:	5f 93       	push	r21
 2e2:	6f 93       	push	r22
 2e4:	7f 93       	push	r23
 2e6:	8f 93       	push	r24
 2e8:	9f 93       	push	r25
 2ea:	af 93       	push	r26
 2ec:	bf 93       	push	r27
 2ee:	ef 93       	push	r30
 2f0:	ff 93       	push	r31
 2f2:	80 91 c6 00 	lds	r24, 0x00C6
 2f6:	80 93 08 01 	sts	0x0108, r24
 2fa:	87 34       	cpi	r24, 0x47	; 71
 2fc:	91 f0       	breq	.+36     	; 0x322 <__vector_18+0x52>
 2fe:	90 91 28 01 	lds	r25, 0x0128
 302:	e9 2f       	mov	r30, r25
 304:	f0 e0       	ldi	r31, 0x00	; 0
 306:	e6 5f       	subi	r30, 0xF6	; 246
 308:	fe 4f       	sbci	r31, 0xFE	; 254
 30a:	80 83       	st	Z, r24
 30c:	89 2f       	mov	r24, r25
 30e:	8f 5f       	subi	r24, 0xFF	; 255
 310:	80 93 28 01 	sts	0x0128, r24
 314:	8e 31       	cpi	r24, 0x1E	; 30
 316:	29 f4       	brne	.+10     	; 0x322 <__vector_18+0x52>
 318:	10 92 28 01 	sts	0x0128, r1
 31c:	78 94       	sei
 31e:	0e 94 18 01 	call	0x230	; 0x230 <MillBuffer>
 322:	ff 91       	pop	r31
 324:	ef 91       	pop	r30
 326:	bf 91       	pop	r27
 328:	af 91       	pop	r26
 32a:	9f 91       	pop	r25
 32c:	8f 91       	pop	r24
 32e:	7f 91       	pop	r23
 330:	6f 91       	pop	r22
 332:	5f 91       	pop	r21
 334:	4f 91       	pop	r20
 336:	3f 91       	pop	r19
 338:	2f 91       	pop	r18
 33a:	0f 90       	pop	r0
 33c:	0f be       	out	0x3f, r0	; 63
 33e:	0f 90       	pop	r0
 340:	1f 90       	pop	r1
 342:	18 95       	reti

00000344 <main>:
 344:	0f 93       	push	r16
 346:	1f 93       	push	r17
 348:	cf 93       	push	r28
 34a:	df 93       	push	r29
 34c:	0e 94 53 00 	call	0xa6	; 0xa6 <Init>
 350:	8c e0       	ldi	r24, 0x0C	; 12
 352:	90 e0       	ldi	r25, 0x00	; 0
 354:	0e 94 60 00 	call	0xc0	; 0xc0 <USART_Init>
 358:	78 94       	sei
 35a:	10 92 09 01 	sts	0x0109, r1
 35e:	10 e2       	ldi	r17, 0x20	; 32
 360:	0e e2       	ldi	r16, 0x2E	; 46
 362:	80 91 08 01 	lds	r24, 0x0108
 366:	82 34       	cpi	r24, 0x42	; 66
 368:	61 f4       	brne	.+24     	; 0x382 <main+0x3e>
 36a:	10 93 08 01 	sts	0x0108, r17
 36e:	10 92 28 01 	sts	0x0128, r1
 372:	ea e0       	ldi	r30, 0x0A	; 10
 374:	f1 e0       	ldi	r31, 0x01	; 1
 376:	01 93       	st	Z+, r16
 378:	81 e0       	ldi	r24, 0x01	; 1
 37a:	e8 32       	cpi	r30, 0x28	; 40
 37c:	f8 07       	cpc	r31, r24
 37e:	d9 f7       	brne	.-10     	; 0x376 <main+0x32>
 380:	f0 cf       	rjmp	.-32     	; 0x362 <main+0x1e>
 382:	85 34       	cpi	r24, 0x45	; 69
 384:	19 f4       	brne	.+6      	; 0x38c <main+0x48>
 386:	0e 94 18 01 	call	0x230	; 0x230 <MillBuffer>
 38a:	0b c0       	rjmp	.+22     	; 0x3a2 <main+0x5e>
 38c:	87 34       	cpi	r24, 0x47	; 71
 38e:	49 f7       	brne	.-46     	; 0x362 <main+0x1e>
 390:	ca e0       	ldi	r28, 0x0A	; 10
 392:	d1 e0       	ldi	r29, 0x01	; 1
 394:	89 91       	ld	r24, Y+
 396:	0e 94 6f 00 	call	0xde	; 0xde <USART_Transmit>
 39a:	81 e0       	ldi	r24, 0x01	; 1
 39c:	c8 32       	cpi	r28, 0x28	; 40
 39e:	d8 07       	cpc	r29, r24
 3a0:	c9 f7       	brne	.-14     	; 0x394 <main+0x50>
 3a2:	10 93 08 01 	sts	0x0108, r17
 3a6:	dd cf       	rjmp	.-70     	; 0x362 <main+0x1e>

000003a8 <_exit>:
 3a8:	f8 94       	cli

000003aa <__stop_program>:
 3aa:	ff cf       	rjmp	.-2      	; 0x3aa <__stop_program>
